; ModuleID = '50/909.c'
source_filename = "50/909.c"
target datalayout = "e-m:e-p270:32:32-p271:32:32-p272:64:64-i64:64-f80:128-n8:16:32:64-S128"
target triple = "x86_64-pc-linux-gnu"

@.str = private unnamed_addr constant [3 x i8] c"%d\00", align 1
@.str.1 = private unnamed_addr constant [4 x i8] c"%d\0A\00", align 1

; Function Attrs: noinline nounwind uwtable
define dso_local i32 @main() #0 {
  %1 = alloca i32, align 4
  %2 = alloca i32, align 4
  %3 = alloca i32, align 4
  %4 = alloca i32, align 4
  store i32 0, i32* %1, align 4
  %5 = call i32 (i8*, ...) @__isoc99_scanf(i8* getelementptr inbounds ([3 x i8], [3 x i8]* @.str, i64 0, i64 0), i32* %2)
  %6 = load i32, i32* %2, align 4
  %7 = add nsw i32 %6, 12
  store i32 %7, i32* %2, align 4
  store i32 1, i32* %3, align 4
  br label %8

8:                                                ; preds = %62, %0
  %9 = load i32, i32* %2, align 4
  %10 = srem i32 %9, 7
  store i32 %10, i32* %4, align 4
  %11 = load i32, i32* %4, align 4
  %12 = icmp eq i32 %11, 5
  br i1 %12, label %13, label %16

13:                                               ; preds = %8
  %14 = load i32, i32* %3, align 4
  %15 = call i32 (i8*, ...) @printf(i8* getelementptr inbounds ([4 x i8], [4 x i8]* @.str.1, i64 0, i64 0), i32 %14)
  br label %16

16:                                               ; preds = %13, %8
  %17 = load i32, i32* %3, align 4
  %18 = icmp eq i32 %17, 1
  br i1 %18, label %34, label %19

19:                                               ; preds = %16
  %20 = load i32, i32* %3, align 4
  %21 = icmp eq i32 %20, 3
  br i1 %21, label %34, label %22

22:                                               ; preds = %19
  %23 = load i32, i32* %3, align 4
  %24 = icmp eq i32 %23, 5
  br i1 %24, label %34, label %25

25:                                               ; preds = %22
  %26 = load i32, i32* %3, align 4
  %27 = icmp eq i32 %26, 7
  br i1 %27, label %34, label %28

28:                                               ; preds = %25
  %29 = load i32, i32* %3, align 4
  %30 = icmp eq i32 %29, 8
  br i1 %30, label %34, label %31

31:                                               ; preds = %28
  %32 = load i32, i32* %3, align 4
  %33 = icmp eq i32 %32, 10
  br i1 %33, label %34, label %37

34:                                               ; preds = %31, %28, %25, %22, %19, %16
  %35 = load i32, i32* %2, align 4
  %36 = add nsw i32 %35, 31
  store i32 %36, i32* %2, align 4
  br label %61

37:                                               ; preds = %31
  %38 = load i32, i32* %3, align 4
  %39 = icmp eq i32 %38, 4
  br i1 %39, label %49, label %40

40:                                               ; preds = %37
  %41 = load i32, i32* %3, align 4
  %42 = icmp eq i32 %41, 6
  br i1 %42, label %49, label %43

43:                                               ; preds = %40
  %44 = load i32, i32* %3, align 4
  %45 = icmp eq i32 %44, 9
  br i1 %45, label %49, label %46

46:                                               ; preds = %43
  %47 = load i32, i32* %3, align 4
  %48 = icmp eq i32 %47, 11
  br i1 %48, label %49, label %52

49:                                               ; preds = %46, %43, %40, %37
  %50 = load i32, i32* %2, align 4
  %51 = add nsw i32 %50, 30
  store i32 %51, i32* %2, align 4
  br label %60

52:                                               ; preds = %46
  %53 = load i32, i32* %3, align 4
  %54 = icmp eq i32 %53, 2
  br i1 %54, label %55, label %58

55:                                               ; preds = %52
  %56 = load i32, i32* %2, align 4
  %57 = add nsw i32 %56, 28
  store i32 %57, i32* %2, align 4
  br label %59

58:                                               ; preds = %52
  br label %65

59:                                               ; preds = %55
  br label %60

60:                                               ; preds = %59, %49
  br label %61

61:                                               ; preds = %60, %34
  br label %62

62:                                               ; preds = %61
  %63 = load i32, i32* %3, align 4
  %64 = add nsw i32 %63, 1
  store i32 %64, i32* %3, align 4
  br label %8

65:                                               ; preds = %58
  %66 = load i32, i32* %1, align 4
  ret i32 %66
}

declare dso_local i32 @__isoc99_scanf(i8*, ...) #1

declare dso_local i32 @printf(i8*, ...) #1


!llvm.module.flags = !{!0}
!llvm.ident = !{!1}

!0 = !{i32 1, !"wchar_size", i32 4}
!1 = !{!"clang version 10.0.0-4ubuntu1 "}
